target datalayout = "e-m:e-p270:32:32-p271:32:32-p272:64:64-i64:64-i128:128-f80:128-n8:16:32:64-S128"
target triple = "x86_64-pc-linux-gnu"

%"class.clang::SourceLocation" = type { i32 }
%"class.clang::ParsedAttr" = type { %"class.clang::AttributeCommonInfo", ptr, %"class.clang::SourceLocation", %"class.clang::SourceLocation", i32, %"class.clang::SourceLocation", ptr, ptr }
%"class.clang::AttributeCommonInfo" = type { ptr, ptr, %"class.clang::SourceRange", %"class.clang::SourceLocation", i32 }
%"class.clang::SourceRange" = type { %"class.clang::SourceLocation", %"class.clang::SourceLocation" }
%"class.clang::SemaBase::SemaDiagnosticBuilder" = type { ptr, %"class.clang::SourceLocation", i32, ptr, i8, [7 x i8], %"class.std::optional.1034", %"class.std::optional.1044" }
%"class.std::optional.1034" = type { %"struct.std::_Optional_base.1035" }
%"struct.std::_Optional_base.1035" = type { %"struct.std::_Optional_payload.1037" }
%"struct.std::_Optional_payload.1037" = type { %"struct.std::_Optional_payload.base.1041", [7 x i8] }
%"struct.std::_Optional_payload.base.1041" = type { %"struct.std::_Optional_payload_base.base.1040" }
%"struct.std::_Optional_payload_base.base.1040" = type { %"union.std::_Optional_payload_base<clang::SemaBase::ImmediateDiagBuilder>::_Storage", i8 }
%"union.std::_Optional_payload_base<clang::SemaBase::ImmediateDiagBuilder>::_Storage" = type { %"class.clang::SemaBase::ImmediateDiagBuilder" }
%"class.clang::SemaBase::ImmediateDiagBuilder" = type <{ %"class.clang::DiagnosticBuilder.base", [6 x i8], ptr, i32, [4 x i8] }>
%"class.clang::DiagnosticBuilder.base" = type <{ %"class.clang::StreamingDiagnostic", ptr, i8, i8 }>
%"class.clang::StreamingDiagnostic" = type { ptr, ptr }
%"class.std::optional.1044" = type { %"struct.std::_Optional_base.1045" }
%"struct.std::_Optional_base.1045" = type { %"struct.std::_Optional_payload.1047" }
%"struct.std::_Optional_payload.1047" = type { %"struct.std::_Optional_payload_base.base.1049", [3 x i8] }
%"struct.std::_Optional_payload_base.base.1049" = type <{ %"union.std::_Optional_payload_base<unsigned int>::_Storage", i8 }>
%"union.std::_Optional_payload_base<unsigned int>::_Storage" = type { i32 }
%"struct.std::not_equal_to" = type { i8 }

; Function Attrs: mustprogress nounwind uwtable
define linkonce_odr hidden i32 @_ZNK5clang11SourceRange8getBeginEv(ptr noundef nonnull align 4 dereferenceable(8) %0) #0 comdat align 2 {
  %2 = alloca %"class.clang::SourceLocation", align 4
  %3 = alloca ptr, align 8
  store ptr %0, ptr %3, align 8
  %4 = load ptr, ptr %3, align 8
  %5 = getelementptr inbounds nuw %"class.clang::SourceRange", ptr %4, i32 0, i32 0
  call void @llvm.memcpy.p0.p0.i64(ptr align 4 %2, ptr align 4 %5, i64 4, i1 false)
  %6 = getelementptr inbounds nuw %"class.clang::SourceLocation", ptr %2, i32 0, i32 0
  %7 = load i32, ptr %6, align 4
  ret i32 %7
}

; Function Attrs: mustprogress nounwind uwtable
define linkonce_odr hidden noundef zeroext i1 @_ZNK5clang10ParsedAttr13hasParsedTypeEv(ptr noundef nonnull align 8 dereferenceable(72) %0) #0 comdat align 2 {
  %2 = alloca ptr, align 8
  store ptr %0, ptr %2, align 8
  %3 = load ptr, ptr %2, align 8
  %4 = getelementptr inbounds nuw %"class.clang::ParsedAttr", ptr %3, i32 0, i32 4
  %5 = load i32, ptr %4, align 8
  %6 = lshr i32 %5, 21
  %7 = and i32 %6, 1
  %8 = icmp ne i32 %7, 0
  ret i1 %8
}

; Function Attrs: mustprogress nounwind uwtable
define linkonce_odr hidden noundef i32 @_ZNK5clang10ParsedAttr10getNumArgsEv(ptr noundef nonnull align 8 dereferenceable(72) %0) #0 comdat align 2 {
  %2 = alloca ptr, align 8
  store ptr %0, ptr %2, align 8
  %3 = load ptr, ptr %2, align 8
  %4 = getelementptr inbounds nuw %"class.clang::ParsedAttr", ptr %3, i32 0, i32 4
  %5 = load i32, ptr %4, align 8
  %6 = and i32 %5, 65535
  ret i32 %6
}

; Function Attrs: mustprogress nounwind uwtable
define linkonce_odr hidden i32 @_ZNK5clang19AttributeCommonInfo6getLocEv(ptr noundef nonnull align 8 dereferenceable(32) %0) #0 comdat align 2 {
  %2 = alloca %"class.clang::SourceLocation", align 4
  %3 = alloca ptr, align 8
  store ptr %0, ptr %3, align 8
  %4 = load ptr, ptr %3, align 8
  %5 = getelementptr inbounds nuw %"class.clang::AttributeCommonInfo", ptr %4, i32 0, i32 2
  %6 = call i32 @_ZNK5clang11SourceRange8getBeginEv(ptr noundef nonnull align 4 dereferenceable(8) %5)
  %7 = getelementptr inbounds nuw %"class.clang::SourceLocation", ptr %2, i32 0, i32 0
  store i32 %6, ptr %7, align 4
  %8 = getelementptr inbounds nuw %"class.clang::SourceLocation", ptr %2, i32 0, i32 0
  %9 = load i32, ptr %8, align 4
  ret i32 %9
}

; Function Attrs: mustprogress nounwind uwtable
define linkonce_odr hidden noundef zeroext i1 @_ZNKSt12not_equal_toIjEclERKjS2_(ptr noundef nonnull align 1 dereferenceable(1) %0, ptr noundef nonnull align 4 dereferenceable(4) %1, ptr noundef nonnull align 4 dereferenceable(4) %2) #0 comdat align 2 {
  %4 = alloca ptr, align 8
  %5 = alloca ptr, align 8
  %6 = alloca ptr, align 8
  store ptr %0, ptr %4, align 8
  store ptr %1, ptr %5, align 8
  store ptr %2, ptr %6, align 8
  %7 = load ptr, ptr %5, align 8
  %8 = load i32, ptr %7, align 4
  %9 = load ptr, ptr %6, align 8
  %10 = load i32, ptr %9, align 4
  %11 = icmp ne i32 %8, %10
  ret i1 %11
}

; Function Attrs: mustprogress nounwind uwtable
define internal noundef i32 @_ZL19getNumAttributeArgsRKN5clang10ParsedAttrE(ptr noundef nonnull align 8 dereferenceable(72) %0) #0 {
  %2 = alloca ptr, align 8
  store ptr %0, ptr %2, align 8
  %3 = load ptr, ptr %2, align 8
  %4 = call noundef i32 @_ZNK5clang10ParsedAttr10getNumArgsEv(ptr noundef nonnull align 8 dereferenceable(72) %3)
  %5 = load ptr, ptr %2, align 8
  %6 = call noundef zeroext i1 @_ZNK5clang10ParsedAttr13hasParsedTypeEv(ptr noundef nonnull align 8 dereferenceable(72) %5)
  %7 = zext i1 %6 to i32
  %8 = add i32 %4, %7
  ret i32 %8
}

; Function Attrs: mustprogress nounwind uwtable
define internal noundef zeroext i1 @_ZL25checkAttributeNumArgsImplISt12not_equal_toIjEEbRN5clang4SemaERKNS2_10ParsedAttrEjjT_(ptr noundef nonnull align 8 dereferenceable(17560) %0, ptr noundef nonnull align 8 dereferenceable(72) %1, i32 noundef %2, i32 noundef %3) #0 {
  %5 = alloca i1, align 1
  %6 = alloca %"struct.std::not_equal_to", align 1
  %7 = alloca ptr, align 8
  %8 = alloca ptr, align 8
  %9 = alloca i32, align 4
  %10 = alloca i32, align 4
  %11 = alloca i32, align 4
  %12 = alloca %"class.clang::SemaBase::SemaDiagnosticBuilder", align 8
  %13 = alloca %"class.clang::SourceLocation", align 4
  store ptr %0, ptr %7, align 8
  store ptr %1, ptr %8, align 8
  store i32 %2, ptr %9, align 4
  store i32 %3, ptr %10, align 4
  %14 = load ptr, ptr %8, align 8
  %15 = call noundef i32 @_ZL19getNumAttributeArgsRKN5clang10ParsedAttrE(ptr noundef nonnull align 8 dereferenceable(72) %14)
  store i32 %15, ptr %11, align 4
  %16 = call noundef zeroext i1 @_ZNKSt12not_equal_toIjEclERKjS2_(ptr noundef nonnull align 1 dereferenceable(1) %6, ptr noundef nonnull align 4 dereferenceable(4) %11, ptr noundef nonnull align 4 dereferenceable(4) %9)
  br i1 %16, label %17, label %29

17:                                               ; preds = %4
  %18 = load ptr, ptr %7, align 8
  %19 = getelementptr inbounds i8, ptr %18, i64 8
  %20 = load ptr, ptr %8, align 8
  %21 = call i32 @_ZNK5clang19AttributeCommonInfo6getLocEv(ptr noundef nonnull align 8 dereferenceable(32) %20)
  %22 = getelementptr inbounds nuw %"class.clang::SourceLocation", ptr %13, i32 0, i32 0
  store i32 %21, ptr %22, align 4
  %23 = load i32, ptr %10, align 4
  %24 = getelementptr inbounds nuw %"class.clang::SourceLocation", ptr %13, i32 0, i32 0
  %25 = load i32, ptr %24, align 4
  call void @_ZN5clang8SemaBase4DiagENS_14SourceLocationEjb(ptr dead_on_unwind writable sret(%"class.clang::SemaBase::SemaDiagnosticBuilder") align 8 %12, ptr noundef nonnull align 8 dereferenceable(8) %19, i32 %25, i32 noundef %23, i1 noundef zeroext false)
  %26 = load ptr, ptr %8, align 8
  %27 = call noundef nonnull align 8 dereferenceable(96) ptr @_ZN5clanglsINS_10ParsedAttrEEERKNS_8SemaBase21SemaDiagnosticBuilderES5_RKT_(ptr noundef nonnull align 8 dereferenceable(96) %12, ptr noundef nonnull align 8 dereferenceable(72) %26)
  %28 = call noundef nonnull align 8 dereferenceable(96) ptr @_ZN5clanglsIjEERKNS_8SemaBase21SemaDiagnosticBuilderES4_RKT_(ptr noundef nonnull align 8 dereferenceable(96) %27, ptr noundef nonnull align 4 dereferenceable(4) %9)
  call void @_ZN5clang8SemaBase21SemaDiagnosticBuilderD1Ev(ptr noundef nonnull align 8 dereferenceable(96) %12) #4
  store i1 false, ptr %5, align 1
  br label %30

29:                                               ; preds = %4
  store i1 true, ptr %5, align 1
  br label %30

30:                                               ; preds = %29, %17
  %31 = load i1, ptr %5, align 1
  ret i1 %31
}

; Function Attrs: mustprogress nounwind uwtable
define dso_local noundef zeroext i1 @_ZNK5clang10ParsedAttr19checkExactlyNumArgsERNS_4SemaEj(ptr noundef nonnull align 8 dereferenceable(72) %0, ptr noundef nonnull align 8 dereferenceable(17560) %1, i32 noundef %2) #0 align 2 {
  %4 = alloca ptr, align 8
  %5 = alloca ptr, align 8
  %6 = alloca i32, align 4
  store ptr %0, ptr %4, align 8
  store ptr %1, ptr %5, align 8
  store i32 %2, ptr %6, align 4
  %7 = load ptr, ptr %4, align 8
  %8 = load ptr, ptr %5, align 8
  %9 = load i32, ptr %6, align 4
  %10 = call noundef zeroext i1 @_ZL25checkAttributeNumArgsImplISt12not_equal_toIjEEbRN5clang4SemaERKNS2_10ParsedAttrEjjT_(ptr noundef nonnull align 8 dereferenceable(17560) %8, ptr noundef nonnull align 8 dereferenceable(72) %7, i32 noundef %9, i32 noundef 2944)
  ret i1 %10
}