; Function Attrs: mustprogress nounwind uwtable
define dso_local noundef zeroext i1 @_ZNK5clang10ParsedAttr19checkExactlyNumArgsERNS_4SemaEj(ptr noundef nonnull align 8 dereferenceable(72) %0, ptr noundef nonnull align 8 dereferenceable(17560) %1, i32 noundef %2) local_unnamed_addr #0 align 2 {
  %4 = alloca i32, align 4
  %5 = alloca %"class.clang::SemaBase::SemaDiagnosticBuilder", align 8
  call void @llvm.lifetime.start.p0(i64 4, ptr nonnull %4)
  call void @llvm.lifetime.start.p0(i64 96, ptr nonnull %5)
  store i32 %2, ptr %4, align 4
  %6 = getelementptr inbounds i8, ptr %0, i64 48
  %.val.i = load i32, ptr %6, align 8
  %7 = and i32 %.val.i, 65535
  %8 = lshr i32 %.val.i, 21
  %.lobit.i.i = and i32 %8, 1
  %9 = add nuw nsw i32 %.lobit.i.i, %7
  %.not.i = icmp eq i32 %9, %2
  br i1 %.not.i, label %_ZL25checkAttributeNumArgsImplISt12not_equal_toIjEEbRN5clang4SemaERKNS2_10ParsedAttrEjjT_.exit, label %10

10:                                               ; preds = %3
  %11 = getelementptr inbounds i8, ptr %1, i64 8
  %12 = getelementptr inbounds nuw i8, ptr %0, i64 16
  %.sroa.0.0.copyload.i.i.i = load i32, ptr %12, align 8
  call void @_ZN5clang8SemaBase4DiagENS_14SourceLocationEjb(ptr dead_on_unwind nonnull writable sret(%"class.clang::SemaBase::SemaDiagnosticBuilder") align 8 %5, ptr noundef nonnull align 8 dereferenceable(8) %11, i32 %.sroa.0.0.copyload.i.i.i, i32 noundef 2944, i1 noundef zeroext false) #18
  %13 = call noundef nonnull align 8 dereferenceable(96) ptr @_ZN5clanglsINS_10ParsedAttrEEERKNS_8SemaBase21SemaDiagnosticBuilderES5_RKT_(ptr noundef nonnull align 8 dereferenceable(96) %5, ptr noundef nonnull align 8 dereferenceable(72) %0)
  %14 = call noundef nonnull align 8 dereferenceable(96) ptr @_ZN5clanglsIjEERKNS_8SemaBase21SemaDiagnosticBuilderES4_RKT_(ptr noundef nonnull align 8 dereferenceable(96) %13, ptr noundef nonnull align 4 dereferenceable(4) %4)
  call void @_ZN5clang8SemaBase21SemaDiagnosticBuilderD1Ev(ptr noundef nonnull align 8 dereferenceable(96) %5) #18
  br label %_ZL25checkAttributeNumArgsImplISt12not_equal_toIjEEbRN5clang4SemaERKNS2_10ParsedAttrEjjT_.exit

_ZL25checkAttributeNumArgsImplISt12not_equal_toIjEEbRN5clang4SemaERKNS2_10ParsedAttrEjjT_.exit: ; preds = %3, %10
  call void @llvm.lifetime.end.p0(i64 4, ptr nonnull %4)
  call void @llvm.lifetime.end.p0(i64 96, ptr nonnull %5)
  ret i1 %.not.i
}